Certificate:
    Data:
        Version: 3 (0x2)
        Serial Number:
            84:5b:d4:64:6a:1b:47:46
    Signature Algorithm: sha256WithRSAEncryption
        Issuer: C=11, ST=11, O=11, OU=11, CN=11/emailAddress=11
        Validity
            Not Before: Nov 25 15:04:02 2018 GMT
            Not After : Nov 25 15:04:02 2019 GMT
        Subject: C=11, ST=11, O=11, OU=11, CN=client/emailAddress=11
        Subject Public Key Info:
            Public Key Algorithm: rsaEncryption
                Public-Key: (1024 bit)
                Modulus:
                    00:a7:40:e7:4d:24:09:29:0f:66:9f:33:2c:75:9c:
                    1a:58:0c:8e:32:4f:b2:64:f9:cc:d1:3c:92:cb:63:
                    06:d9:1a:09:b0:3d:b5:af:83:c3:29:24:7d:33:08:
                    0b:08:f1:46:84:97:b9:07:31:89:cc:28:f4:37:7f:
                    71:cf:0a:57:ec:43:98:59:ac:71:a1:47:30:ca:63:
                    96:b4:27:b7:d0:62:9f:63:c9:35:8b:5c:bc:cd:d9:
                    39:51:b5:5a:bc:80:d2:53:5f:4c:bd:80:64:2a:ec:
                    63:2d:95:9b:2f:f2:7c:f4:3b:2c:c2:1e:c1:68:63:
                    83:95:c0:01:b2:d4:11:42:71
                Exponent: 65537 (0x10001)
        X509v3 extensions:
            X509v3 Basic Constraints: 
                CA:FALSE
            Netscape Comment: 
                OpenSSL Generated Certificate
            X509v3 Subject Key Identifier: 
                04:7E:31:24:A2:FE:CE:54:AA:49:F2:EF:4B:22:23:6F:65:EB:8C:A0
            X509v3 Authority Key Identifier: 
                keyid:B2:2A:56:32:10:86:E6:F9:A4:BF:5E:38:5F:09:1A:34:D2:5D:4B:C7

    Signature Algorithm: sha256WithRSAEncryption
         45:34:29:f3:5d:74:88:24:47:c8:32:e5:44:0f:52:83:21:da:
         a1:2d:73:67:69:b6:13:4c:b2:8e:af:42:10:7d:11:22:3e:92:
         89:49:e6:aa:19:83:ea:01:65:21:1d:66:d1:41:e6:60:9d:2a:
         9a:fe:28:b0:c7:8b:5e:5e:9f:e9:5c:ab:86:44:07:02:de:73:
         1e:b2:d6:b6:12:36:46:ca:12:6f:30:bd:df:43:bc:29:d6:b3:
         40:80:76:55:c9:48:73:23:3f:fc:a7:9e:2c:a7:59:ee:b7:5a:
         b8:fd:de:9b:93:55:43:31:be:11:61:67:74:b0:d2:f0:2b:23:
         33:1b:3e:f4:9b:2f:27:e4:d2:1c:8f:d4:c3:a4:a4:eb:52:f7:
         2a:92:d5:21:14:00:e1:72:93:35:91:4f:b1:2c:91:44:44:59:
         bf:0b:0e:b8:4e:b2:57:1a:93:54:ba:58:d4:ea:50:4b:b1:0c:
         70:c2:92:62:f2:2b:f2:86:36:70:eb:a5:60:7c:fb:06:45:36:
         57:ed:91:58:90:5c:2d:bf:b8:dc:76:6c:76:1e:fb:60:be:4c:
         45:d8:97:6e:14:65:2f:45:1b:5d:20:d7:0d:fc:e5:86:d8:88:
         74:c1:3a:70:fb:f4:e0:8e:e1:6d:44:6c:d5:ce:5e:bb:66:9f:
         f6:7e:4d:e5
-----BEGIN CERTIFICATE-----
MIIDJjCCAg6gAwIBAgIJAIRb1GRqG0dGMA0GCSqGSIb3DQEBCwUAMFQxCzAJBgNV
BAYTAjExMQswCQYDVQQIDAIxMTELMAkGA1UECgwCMTExCzAJBgNVBAsMAjExMQsw
CQYDVQQDDAIxMTERMA8GCSqGSIb3DQEJARYCMTEwHhcNMTgxMTI1MTUwNDAyWhcN
MTkxMTI1MTUwNDAyWjBYMQswCQYDVQQGEwIxMTELMAkGA1UECAwCMTExCzAJBgNV
BAoMAjExMQswCQYDVQQLDAIxMTEPMA0GA1UEAwwGY2xpZW50MREwDwYJKoZIhvcN
AQkBFgIxMTCBnzANBgkqhkiG9w0BAQEFAAOBjQAwgYkCgYEAp0DnTSQJKQ9mnzMs
dZwaWAyOMk+yZPnM0TySy2MG2RoJsD21r4PDKSR9MwgLCPFGhJe5BzGJzCj0N39x
zwpX7EOYWaxxoUcwymOWtCe30GKfY8k1i1y8zdk5UbVavIDSU19MvYBkKuxjLZWb
L/J89Dsswh7BaGODlcABstQRQnECAwEAAaN7MHkwCQYDVR0TBAIwADAsBglghkgB
hvhCAQ0EHxYdT3BlblNTTCBHZW5lcmF0ZWQgQ2VydGlmaWNhdGUwHQYDVR0OBBYE
FAR+MSSi/s5Uqkny70siI29l64ygMB8GA1UdIwQYMBaAFLIqVjIQhub5pL9eOF8J
GjTSXUvHMA0GCSqGSIb3DQEBCwUAA4IBAQBFNCnzXXSIJEfIMuVED1KDIdqhLXNn
abYTTLKOr0IQfREiPpKJSeaqGYPqAWUhHWbRQeZgnSqa/iiwx4teXp/pXKuGRAcC
3nMesta2EjZGyhJvML3fQ7wp1rNAgHZVyUhzIz/8p54sp1nut1q4/d6bk1VDMb4R
YWd0sNLwKyMzGz70my8n5NIcj9TDpKTrUvcqktUhFADhcpM1kU+xLJFERFm/Cw64
TrJXGpNUuljU6lBLsQxwwpJi8ivyhjZw66VgfPsGRTZX7ZFYkFwtv7jcdmx2Hvtg
vkxF2JduFGUvRRtdINcN/OWG2Ih0wTpw+/TgjuFtRGzVzl67Zp/2fk3l
-----END CERTIFICATE-----
