Certificate:
    Data:
        Version: 3 (0x2)
        Serial Number:
            9d:1d:55:ed:62:e3:7f:c0
    Signature Algorithm: sha256WithRSAEncryption
        Issuer: C=CN, ST=SICHUAN, O=UESTC, OU=CS, CN=QUANTU_ZO/emailAddress=quantu_zo@yahoo.com
        Validity
            Not Before: Nov 21 02:41:29 2018 GMT
            Not After : Nov 20 02:41:29 2021 GMT
        Subject: C=CN, ST=SICHUAN, O=UESTC, OU=CS, CN=QUANTU_ZO/emailAddress=quantu_zo@yahoo.com
        Subject Public Key Info:
            Public Key Algorithm: rsaEncryption
                Public-Key: (2048 bit)
                Modulus:
                    00:b6:10:e2:d6:bb:0c:1e:7e:29:bd:9a:65:87:59:
                    d7:0f:30:24:24:c7:e2:a5:25:0e:61:e3:45:c1:dc:
                    3a:59:89:1a:51:be:35:d8:cf:18:e8:7d:5f:2c:94:
                    0c:9a:22:d3:7c:1e:08:81:34:f6:a9:40:32:79:a1:
                    a6:29:eb:7f:0f:2e:b9:08:b6:90:ce:86:5d:9f:89:
                    ef:9d:4b:d6:75:88:08:38:8a:f3:c7:40:0b:8d:da:
                    52:24:43:b3:6f:a6:3c:44:d4:b5:78:15:e0:f9:96:
                    02:ac:d2:32:2e:4b:a5:c7:73:d6:d2:dd:00:82:0c:
                    b7:e1:0c:8f:6f:25:3b:43:68:a1:cf:19:b4:95:d0:
                    b2:24:38:4b:9f:28:48:37:ab:9d:cc:37:a8:35:4c:
                    f6:a7:85:63:a5:af:a8:bc:4e:99:27:5e:03:ca:e0:
                    38:b0:98:d8:9d:f0:b9:b7:41:23:93:08:9b:ee:8d:
                    7a:05:4d:9c:20:4c:0c:33:1f:c9:e5:1d:e6:0d:6b:
                    99:13:ac:bf:5f:0f:e5:96:ab:fc:f0:41:7b:de:7e:
                    e1:49:2b:62:1b:17:1b:61:18:63:eb:4d:65:fa:e5:
                    81:af:19:2b:a8:98:30:a2:58:1f:c9:ac:93:94:14:
                    4f:5b:1b:8a:42:67:7a:81:f9:fe:38:c8:8f:24:18:
                    be:e7
                Exponent: 65537 (0x10001)
        X509v3 extensions:
            X509v3 Subject Key Identifier: 
                2D:7D:6C:01:1E:3E:F6:1A:24:DC:0E:C2:26:3D:EB:0F:87:D2:F6:BF
            X509v3 Authority Key Identifier: 
                keyid:2D:7D:6C:01:1E:3E:F6:1A:24:DC:0E:C2:26:3D:EB:0F:87:D2:F6:BF

            X509v3 Basic Constraints: 
                CA:TRUE
    Signature Algorithm: sha256WithRSAEncryption
         86:a2:6b:6c:06:ca:5d:3d:a4:9c:45:e0:ca:96:ed:a1:45:45:
         09:99:75:32:f0:18:00:0a:38:81:42:51:1b:ce:fe:0c:47:94:
         1e:b7:28:2d:61:a9:0a:31:e2:d7:e7:bb:e4:c0:1e:30:b2:57:
         9b:98:dc:ad:78:74:4f:46:08:c9:52:a7:6a:6c:1c:fc:e4:03:
         49:6c:ac:62:44:22:e9:83:6c:92:e7:d7:4e:5b:81:cf:95:99:
         a0:ed:4c:9f:93:7a:02:18:85:14:55:ab:fc:22:a3:97:f4:cc:
         fa:92:e4:cf:bf:6e:b3:d6:5d:3e:50:63:03:42:9c:28:ee:7d:
         d6:f5:33:12:8f:c0:95:3b:78:50:cc:c7:50:44:84:a4:09:24:
         f8:fa:c5:41:d0:c8:04:67:4a:9f:b5:f1:00:6d:df:bb:2c:de:
         b5:bb:70:b1:fe:76:40:d6:7a:ac:82:f4:df:9f:52:35:62:f7:
         ef:ef:34:8f:20:9d:76:7e:77:35:2f:03:d5:c9:04:9b:ea:ef:
         8c:bd:ba:8a:b2:32:80:9a:79:c0:bc:7f:c7:d0:e5:9e:0d:b3:
         b3:c1:df:cf:71:18:31:c6:c9:f8:f2:d5:cc:fc:c3:31:2a:5e:
         96:80:12:1b:64:6c:18:4a:70:16:87:31:10:44:10:12:20:02:
         1d:7e:3f:99
-----BEGIN CERTIFICATE-----
MIIDuzCCAqOgAwIBAgIJAJ0dVe1i43/AMA0GCSqGSIb3DQEBCwUAMHQxCzAJBgNV
BAYTAkNOMRAwDgYDVQQIDAdTSUNIVUFOMQ4wDAYDVQQKDAVVRVNUQzELMAkGA1UE
CwwCQ1MxEjAQBgNVBAMMCVFVQU5UVV9aTzEiMCAGCSqGSIb3DQEJARYTcXVhbnR1
X3pvQHlhaG9vLmNvbTAeFw0xODExMjEwMjQxMjlaFw0yMTExMjAwMjQxMjlaMHQx
CzAJBgNVBAYTAkNOMRAwDgYDVQQIDAdTSUNIVUFOMQ4wDAYDVQQKDAVVRVNUQzEL
MAkGA1UECwwCQ1MxEjAQBgNVBAMMCVFVQU5UVV9aTzEiMCAGCSqGSIb3DQEJARYT
cXVhbnR1X3pvQHlhaG9vLmNvbTCCASIwDQYJKoZIhvcNAQEBBQADggEPADCCAQoC
ggEBALYQ4ta7DB5+Kb2aZYdZ1w8wJCTH4qUlDmHjRcHcOlmJGlG+NdjPGOh9XyyU
DJoi03weCIE09qlAMnmhpinrfw8uuQi2kM6GXZ+J751L1nWICDiK88dAC43aUiRD
s2+mPETUtXgV4PmWAqzSMi5Lpcdz1tLdAIIMt+EMj28lO0Nooc8ZtJXQsiQ4S58o
SDerncw3qDVM9qeFY6WvqLxOmSdeA8rgOLCY2J3wubdBI5MIm+6NegVNnCBMDDMf
yeUd5g1rmROsv18P5Zar/PBBe95+4UkrYhsXG2EYY+tNZfrlga8ZK6iYMKJYH8ms
k5QUT1sbikJneoH5/jjIjyQYvucCAwEAAaNQME4wHQYDVR0OBBYEFC19bAEePvYa
JNwOwiY96w+H0va/MB8GA1UdIwQYMBaAFC19bAEePvYaJNwOwiY96w+H0va/MAwG
A1UdEwQFMAMBAf8wDQYJKoZIhvcNAQELBQADggEBAIaia2wGyl09pJxF4MqW7aFF
RQmZdTLwGAAKOIFCURvO/gxHlB63KC1hqQox4tfnu+TAHjCyV5uY3K14dE9GCMlS
p2psHPzkA0lsrGJEIumDbJLn105bgc+VmaDtTJ+TegIYhRRVq/wio5f0zPqS5M+/
brPWXT5QYwNCnCjufdb1MxKPwJU7eFDMx1BEhKQJJPj6xUHQyARnSp+18QBt37ss
3rW7cLH+dkDWeqyC9N+fUjVi9+/vNI8gnXZ+dzUvA9XJBJvq74y9uoqyMoCaecC8
f8fQ5Z4Ns7PB389xGDHGyfjy1cz8wzEqXpaAEhtkbBhKcBaHMRBEEBIgAh1+P5k=
-----END CERTIFICATE-----
