Certificate:
    Data:
        Version: 3 (0x2)
        Serial Number:
            84:5b:d4:64:6a:1b:47:47
    Signature Algorithm: sha256WithRSAEncryption
        Issuer: C=11, ST=11, O=11, OU=11, CN=11/emailAddress=11
        Validity
            Not Before: Nov 25 15:04:06 2018 GMT
            Not After : Nov 25 15:04:06 2019 GMT
        Subject: C=11, ST=11, O=11, OU=11, CN=server/emailAddress=11
        Subject Public Key Info:
            Public Key Algorithm: rsaEncryption
                Public-Key: (1024 bit)
                Modulus:
                    00:bf:3a:26:ae:fb:ed:b3:62:bc:e9:95:56:3a:fe:
                    85:3b:d9:4f:a4:b0:2b:a4:a1:17:d5:13:66:d3:02:
                    3a:52:77:34:f7:ba:12:20:46:c8:41:53:c1:8b:66:
                    bf:a0:f6:15:b2:61:f4:0b:e5:cd:10:45:56:ff:8b:
                    95:fe:ab:d8:13:eb:a0:33:76:a4:41:4e:c3:c9:ba:
                    f6:82:b1:de:b5:52:61:96:05:83:35:49:e1:33:88:
                    93:62:48:15:5c:43:e8:be:d2:7d:54:b3:20:4b:e7:
                    2d:59:70:08:8b:71:b0:97:84:d1:02:3b:b4:98:1a:
                    de:42:a5:c3:3c:a9:46:b6:7f
                Exponent: 65537 (0x10001)
        X509v3 extensions:
            X509v3 Basic Constraints: 
                CA:FALSE
            Netscape Comment: 
                OpenSSL Generated Certificate
            X509v3 Subject Key Identifier: 
                CA:C3:EA:5F:6E:6C:D7:81:7A:F5:07:36:6D:C7:DE:CB:06:6E:91:1B
            X509v3 Authority Key Identifier: 
                keyid:B2:2A:56:32:10:86:E6:F9:A4:BF:5E:38:5F:09:1A:34:D2:5D:4B:C7

    Signature Algorithm: sha256WithRSAEncryption
         67:e9:ce:92:e8:75:77:da:69:a0:01:50:b1:21:5f:16:23:4c:
         76:15:af:37:2b:1b:dc:4b:02:88:4a:c5:4d:94:1b:6e:48:c6:
         f5:cd:61:7e:1d:21:8c:d8:83:26:94:12:f5:d4:3b:88:ab:ff:
         60:58:f6:bf:f5:56:76:ee:a5:d2:55:4e:87:9d:38:d3:6b:d7:
         85:88:b3:b7:39:94:f5:db:86:a6:3e:e7:d6:3f:e8:fa:c8:9e:
         94:9c:0e:57:a3:17:ea:94:e3:39:d7:74:4e:07:a6:fc:e7:5c:
         3b:c5:5f:50:79:23:79:18:38:a8:50:70:3b:77:8c:c8:bc:d4:
         47:e3:dc:b5:e6:f8:08:be:1e:1c:51:06:d3:3e:b3:31:7d:02:
         96:ca:e9:44:02:78:b3:7f:28:6a:ac:9a:1f:52:c8:78:37:69:
         da:6a:73:6b:8e:ee:57:6e:f0:19:b9:d2:71:16:97:01:d2:3c:
         af:0d:b9:13:fc:58:62:d3:7c:d4:0a:10:b4:c5:01:2e:ea:ed:
         84:a5:bc:e1:12:17:a6:4c:91:3b:b6:66:94:ff:40:f6:ff:74:
         3f:43:80:71:82:fa:88:cc:01:14:66:1e:45:3c:d1:c0:b7:b8:
         cc:a9:ad:43:6f:14:a5:12:5f:a6:85:b1:02:a0:a8:44:8c:8b:
         ce:ce:a4:0b
-----BEGIN CERTIFICATE-----
MIIDJjCCAg6gAwIBAgIJAIRb1GRqG0dHMA0GCSqGSIb3DQEBCwUAMFQxCzAJBgNV
BAYTAjExMQswCQYDVQQIDAIxMTELMAkGA1UECgwCMTExCzAJBgNVBAsMAjExMQsw
CQYDVQQDDAIxMTERMA8GCSqGSIb3DQEJARYCMTEwHhcNMTgxMTI1MTUwNDA2WhcN
MTkxMTI1MTUwNDA2WjBYMQswCQYDVQQGEwIxMTELMAkGA1UECAwCMTExCzAJBgNV
BAoMAjExMQswCQYDVQQLDAIxMTEPMA0GA1UEAwwGc2VydmVyMREwDwYJKoZIhvcN
AQkBFgIxMTCBnzANBgkqhkiG9w0BAQEFAAOBjQAwgYkCgYEAvzomrvvts2K86ZVW
Ov6FO9lPpLArpKEX1RNm0wI6Unc097oSIEbIQVPBi2a/oPYVsmH0C+XNEEVW/4uV
/qvYE+ugM3akQU7Dybr2grHetVJhlgWDNUnhM4iTYkgVXEPovtJ9VLMgS+ctWXAI
i3Gwl4TRAju0mBreQqXDPKlGtn8CAwEAAaN7MHkwCQYDVR0TBAIwADAsBglghkgB
hvhCAQ0EHxYdT3BlblNTTCBHZW5lcmF0ZWQgQ2VydGlmaWNhdGUwHQYDVR0OBBYE
FMrD6l9ubNeBevUHNm3H3ssGbpEbMB8GA1UdIwQYMBaAFLIqVjIQhub5pL9eOF8J
GjTSXUvHMA0GCSqGSIb3DQEBCwUAA4IBAQBn6c6S6HV32mmgAVCxIV8WI0x2Fa83
KxvcSwKISsVNlBtuSMb1zWF+HSGM2IMmlBL11DuIq/9gWPa/9VZ27qXSVU6HnTjT
a9eFiLO3OZT124amPufWP+j6yJ6UnA5XoxfqlOM513ROB6b851w7xV9QeSN5GDio
UHA7d4zIvNRH49y15vgIvh4cUQbTPrMxfQKWyulEAnizfyhqrJofUsh4N2naanNr
ju5XbvAZudJxFpcB0jyvDbkT/Fhi03zUChC0xQEu6u2EpbzhEhemTJE7tmaU/0D2
/3Q/Q4BxgvqIzAEUZh5FPNHAt7jMqa1DbxSlEl+mhbECoKhEjIvOzqQL
-----END CERTIFICATE-----
