Certificate:
    Data:
        Version: 3 (0x2)
        Serial Number: 2 (0x2)
    Signature Algorithm: sha256WithRSAEncryption
        Issuer: C=CN, ST=SICHUAN, O=UESTC, OU=CS, CN=QUANTU_ZO/emailAddress=quantu_zo@yahoo.com
        Validity
            Not Before: Nov 21 02:43:39 2018 GMT
            Not After : Nov 21 02:43:39 2019 GMT
        Subject: C=CN, ST=SICHUAN, O=UESTC, OU=CS, CN=QUANTU_ZO/emailAddress=1214224883@qq.com
        Subject Public Key Info:
            Public Key Algorithm: rsaEncryption
                Public-Key: (1024 bit)
                Modulus:
                    00:ac:37:6e:64:4e:86:82:d9:5b:4f:f4:f6:65:a5:
                    18:0a:c6:07:39:40:72:63:b6:ae:92:76:f2:5d:b6:
                    a5:ca:02:52:78:f7:29:3a:03:86:6b:5c:5a:dc:1a:
                    e2:7c:c4:57:39:2f:0b:7a:94:5e:e5:92:bb:f1:ff:
                    00:c6:01:d7:60:31:4f:7c:f5:4a:fc:9a:0b:d8:bb:
                    f5:ea:40:0f:52:33:5c:01:ef:88:ed:d5:ce:cd:1f:
                    d7:f5:6f:80:b6:bc:fa:41:1e:be:e4:75:7a:46:53:
                    1e:df:82:70:47:e2:e2:59:0b:8f:83:2b:4a:ae:c0:
                    1a:fa:07:d8:d4:01:10:54:a3
                Exponent: 65537 (0x10001)
        X509v3 extensions:
            X509v3 Basic Constraints: 
                CA:FALSE
            Netscape Comment: 
                OpenSSL Generated Certificate
            X509v3 Subject Key Identifier: 
                AA:46:AB:B6:6D:08:27:7B:73:DF:D9:08:EA:9C:76:62:A6:74:3F:C3
            X509v3 Authority Key Identifier: 
                keyid:2D:7D:6C:01:1E:3E:F6:1A:24:DC:0E:C2:26:3D:EB:0F:87:D2:F6:BF

    Signature Algorithm: sha256WithRSAEncryption
         54:df:5b:b5:d5:6d:d3:02:d0:5c:e0:13:63:37:ed:88:c6:78:
         b8:64:be:c6:10:a0:de:d0:e6:7b:b4:e5:c1:e9:76:99:51:7c:
         f0:d4:ee:09:03:a0:dc:43:f1:5d:2b:97:2e:97:c9:94:dd:79:
         dd:da:54:95:a2:f7:14:2e:6e:be:67:e3:15:b3:2c:e3:12:ff:
         2b:d2:27:31:81:c2:31:88:35:84:61:d2:0b:02:d6:ee:87:a9:
         64:18:ca:b6:4e:6e:e1:f8:f4:1c:2d:5c:ed:3d:97:28:8a:02:
         09:e4:65:1b:71:92:1e:40:36:44:6b:1f:f1:9c:00:7e:a1:b2:
         a7:1e:c9:3b:8b:eb:d6:cc:e9:af:75:f9:33:55:a8:c3:9a:de:
         8d:ce:43:78:57:53:a1:b8:07:b1:6d:0e:61:df:e9:e2:9f:45:
         8d:54:0b:1f:24:63:ed:c8:2d:6d:ff:d5:b3:72:9b:61:8b:73:
         e8:3c:e7:2a:d4:df:8e:07:f6:02:7a:e0:e3:42:77:4c:08:7b:
         ae:63:7d:72:f2:37:68:7e:59:d6:ba:b5:9f:ab:94:e9:84:2b:
         b4:d0:48:8a:64:ee:27:5e:d5:10:0a:a8:79:1f:fd:ba:fe:29:
         1f:72:df:ac:15:36:2f:c5:a1:32:65:6f:ff:8a:da:0c:24:1b:
         bb:95:49:ad
-----BEGIN CERTIFICATE-----
MIIDWDCCAkCgAwIBAgIBAjANBgkqhkiG9w0BAQsFADB0MQswCQYDVQQGEwJDTjEQ
MA4GA1UECAwHU0lDSFVBTjEOMAwGA1UECgwFVUVTVEMxCzAJBgNVBAsMAkNTMRIw
EAYDVQQDDAlRVUFOVFVfWk8xIjAgBgkqhkiG9w0BCQEWE3F1YW50dV96b0B5YWhv
by5jb20wHhcNMTgxMTIxMDI0MzM5WhcNMTkxMTIxMDI0MzM5WjByMQswCQYDVQQG
EwJDTjEQMA4GA1UECAwHU0lDSFVBTjEOMAwGA1UECgwFVUVTVEMxCzAJBgNVBAsM
AkNTMRIwEAYDVQQDDAlRVUFOVFVfWk8xIDAeBgkqhkiG9w0BCQEWETEyMTQyMjQ4
ODNAcXEuY29tMIGfMA0GCSqGSIb3DQEBAQUAA4GNADCBiQKBgQCsN25kToaC2VtP
9PZlpRgKxgc5QHJjtq6SdvJdtqXKAlJ49yk6A4ZrXFrcGuJ8xFc5Lwt6lF7lkrvx
/wDGAddgMU989Ur8mgvYu/XqQA9SM1wB74jt1c7NH9f1b4C2vPpBHr7kdXpGUx7f
gnBH4uJZC4+DK0quwBr6B9jUARBUowIDAQABo3sweTAJBgNVHRMEAjAAMCwGCWCG
SAGG+EIBDQQfFh1PcGVuU1NMIEdlbmVyYXRlZCBDZXJ0aWZpY2F0ZTAdBgNVHQ4E
FgQUqkartm0IJ3tz39kI6px2YqZ0P8MwHwYDVR0jBBgwFoAULX1sAR4+9hok3A7C
Jj3rD4fS9r8wDQYJKoZIhvcNAQELBQADggEBAFTfW7XVbdMC0FzgE2M37YjGeLhk
vsYQoN7Q5nu05cHpdplRfPDU7gkDoNxD8V0rly6XyZTded3aVJWi9xQubr5n4xWz
LOMS/yvSJzGBwjGINYRh0gsC1u6HqWQYyrZObuH49BwtXO09lyiKAgnkZRtxkh5A
NkRrH/GcAH6hsqceyTuL69bM6a91+TNVqMOa3o3OQ3hXU6G4B7FtDmHf6eKfRY1U
Cx8kY+3ILW3/1bNym2GLc+g85yrU344H9gJ64ONCd0wIe65jfXLyN2h+Wda6tZ+r
lOmEK7TQSIpk7ide1RAKqHkf/br+KR9y36wVNi/FoTJlb/+K2gwkG7uVSa0=
-----END CERTIFICATE-----
