Certificate:
    Data:
        Version: 3 (0x2)
        Serial Number: 1 (0x1)
    Signature Algorithm: sha256WithRSAEncryption
        Issuer: C=CN, ST=SICHUAN, L=CHENGDU, O=UESTC, OU=CS, CN=QUANTU_ZO/emailAddress=1214224883@qq.com
        Validity
            Not Before: Nov  8 11:58:28 2018 GMT
            Not After : Nov  8 11:58:28 2019 GMT
        Subject: C=CN, ST=SICHUAN, O=UESTC, OU=CS, CN=QUANTU_ZO/emailAddress=1214224883@qq.com
        Subject Public Key Info:
            Public Key Algorithm: rsaEncryption
                Public-Key: (1024 bit)
                Modulus:
                    00:b6:4f:fb:4e:0f:33:12:e5:f1:d4:53:55:44:54:
                    4c:7c:da:14:cf:cd:d3:02:ed:87:ff:69:ed:de:52:
                    bf:9f:8f:11:f5:d7:3c:08:38:47:28:66:d3:9d:27:
                    68:36:0c:07:4d:56:a0:ca:f2:8b:2b:a7:64:b5:65:
                    d1:b3:23:56:e4:c0:08:69:3f:3e:1b:b8:c2:cb:79:
                    33:e9:a5:3a:80:06:1d:0a:76:c6:9c:f0:24:15:d3:
                    6c:30:9a:90:22:4c:72:65:41:1e:73:a8:c5:d6:28:
                    f6:e5:a5:91:d3:4f:c6:f3:0d:a1:b8:c8:8f:f4:f5:
                    55:7b:a7:c0:c3:ac:2d:b4:a1
                Exponent: 65537 (0x10001)
        X509v3 extensions:
            X509v3 Basic Constraints: 
                CA:FALSE
            Netscape Comment: 
                OpenSSL Generated Certificate
            X509v3 Subject Key Identifier: 
                1C:88:22:B3:03:8A:71:A2:B9:12:0D:62:D6:BA:09:9A:B1:6A:15:0C
            X509v3 Authority Key Identifier: 
                keyid:72:19:88:82:C6:33:6C:E2:ED:7B:14:3F:AC:2B:56:BB:BF:54:49:40

    Signature Algorithm: sha256WithRSAEncryption
         c2:5f:cb:fe:1a:cf:9d:86:6c:e8:8f:28:75:28:05:bc:b1:32:
         33:05:04:81:f9:c5:d1:3d:d3:1a:7d:c6:70:ff:b7:a8:e6:d3:
         df:90:c8:dc:14:f3:a1:55:59:44:c1:a0:c6:75:a9:7f:0d:8f:
         d6:6f:d7:97:f0:98:d0:48:af:d2:12:20:a1:5f:d5:42:10:11:
         f7:b8:05:d3:14:f6:1d:e4:4d:97:55:80:f0:0f:64:49:92:1d:
         0f:b0:be:2c:cd:33:e7:47:a7:43:4b:d9:3a:a7:c5:d5:f0:75:
         a7:77:66:d3:4d:7c:22:fe:35:60:11:f4:f6:66:51:4b:2d:7b:
         aa:83:0d:7f:35:90:3a:3c:95:a6:43:7b:77:81:9c:08:1e:42:
         04:ea:a2:0a:a5:69:a8:67:a3:dc:df:49:33:49:0d:fe:37:4e:
         64:83:1c:b8:21:32:a3:76:d4:b4:ce:73:05:eb:e6:26:a6:65:
         59:04:3a:d0:8c:64:02:38:84:f8:b6:cf:1c:dc:29:83:3b:e9:
         f8:f7:db:90:46:07:81:be:f6:68:81:81:14:38:7e:fb:46:f8:
         81:e0:7e:c9:4b:2b:68:2d:d8:47:5c:b7:b5:aa:8c:52:97:58:
         2a:97:71:bc:c9:b0:4a:08:5b:c2:c6:17:ca:05:11:0d:4e:5c:
         6e:28:b5:0c
-----BEGIN CERTIFICATE-----
MIIDaTCCAlGgAwIBAgIBATANBgkqhkiG9w0BAQsFADCBhDELMAkGA1UEBhMCQ04x
EDAOBgNVBAgMB1NJQ0hVQU4xEDAOBgNVBAcMB0NIRU5HRFUxDjAMBgNVBAoMBVVF
U1RDMQswCQYDVQQLDAJDUzESMBAGA1UEAwwJUVVBTlRVX1pPMSAwHgYJKoZIhvcN
AQkBFhExMjE0MjI0ODgzQHFxLmNvbTAeFw0xODExMDgxMTU4MjhaFw0xOTExMDgx
MTU4MjhaMHIxCzAJBgNVBAYTAkNOMRAwDgYDVQQIDAdTSUNIVUFOMQ4wDAYDVQQK
DAVVRVNUQzELMAkGA1UECwwCQ1MxEjAQBgNVBAMMCVFVQU5UVV9aTzEgMB4GCSqG
SIb3DQEJARYRMTIxNDIyNDg4M0BxcS5jb20wgZ8wDQYJKoZIhvcNAQEBBQADgY0A
MIGJAoGBALZP+04PMxLl8dRTVURUTHzaFM/N0wLth/9p7d5Sv5+PEfXXPAg4Ryhm
050naDYMB01WoMryiyunZLVl0bMjVuTACGk/Phu4wst5M+mlOoAGHQp2xpzwJBXT
bDCakCJMcmVBHnOoxdYo9uWlkdNPxvMNobjIj/T1VXunwMOsLbShAgMBAAGjezB5
MAkGA1UdEwQCMAAwLAYJYIZIAYb4QgENBB8WHU9wZW5TU0wgR2VuZXJhdGVkIENl
cnRpZmljYXRlMB0GA1UdDgQWBBQciCKzA4pxorkSDWLWugmasWoVDDAfBgNVHSME
GDAWgBRyGYiCxjNs4u17FD+sK1a7v1RJQDANBgkqhkiG9w0BAQsFAAOCAQEAwl/L
/hrPnYZs6I8odSgFvLEyMwUEgfnF0T3TGn3GcP+3qObT35DI3BTzoVVZRMGgxnWp
fw2P1m/Xl/CY0Eiv0hIgoV/VQhAR97gF0xT2HeRNl1WA8A9kSZIdD7C+LM0z50en
Q0vZOqfF1fB1p3dm0018Iv41YBH09mZRSy17qoMNfzWQOjyVpkN7d4GcCB5CBOqi
CqVpqGej3N9JM0kN/jdOZIMcuCEyo3bUtM5zBevmJqZlWQQ60IxkAjiE+LbPHNwp
gzvp+PfbkEYHgb72aIGBFDh++0b4geB+yUsraC3YR1y3taqMUpdYKpdxvMmwSghb
wsYXygURDU5cbii1DA==
-----END CERTIFICATE-----
