Certificate:
    Data:
        Version: 3 (0x2)
        Serial Number: 1 (0x1)
    Signature Algorithm: sha256WithRSAEncryption
        Issuer: C=CN, ST=SICHUAN, O=UESTC, OU=CS, CN=QUANTU_ZO/emailAddress=quantu_zo@yahoo.com
        Validity
            Not Before: Nov 21 02:42:26 2018 GMT
            Not After : Nov 21 02:42:26 2019 GMT
        Subject: C=CN, ST=SICHUAN, O=UESTC, OU=CS, CN=QUANTU_ZO/emailAddress=11@qq.com
        Subject Public Key Info:
            Public Key Algorithm: rsaEncryption
                Public-Key: (1024 bit)
                Modulus:
                    00:b0:77:76:78:49:3a:b5:19:c1:17:5f:56:82:5a:
                    05:d0:d5:5e:4b:7c:1b:84:55:ab:55:46:2a:53:05:
                    0b:75:7a:f4:d6:4b:8c:4a:f5:24:0a:2c:a2:1b:bb:
                    15:e2:12:df:2a:fe:d0:50:14:18:b7:d0:db:0d:40:
                    b8:c4:cd:d4:4c:84:e2:5c:bd:b5:e5:c9:78:98:47:
                    c3:f1:71:ea:84:d0:bf:56:91:bb:d4:da:1c:7e:b9:
                    f5:a4:b8:17:60:60:53:8a:35:70:88:f0:8e:d2:a6:
                    f4:a0:2b:01:77:e6:28:9a:8e:78:8b:8e:49:ef:7d:
                    86:d1:f0:0d:b2:d1:a0:e9:81
                Exponent: 65537 (0x10001)
        X509v3 extensions:
            X509v3 Basic Constraints: 
                CA:FALSE
            Netscape Comment: 
                OpenSSL Generated Certificate
            X509v3 Subject Key Identifier: 
                9A:FE:72:1E:1F:AC:10:4C:F9:E6:C7:F4:A7:C7:7B:7D:56:D9:68:B4
            X509v3 Authority Key Identifier: 
                keyid:2D:7D:6C:01:1E:3E:F6:1A:24:DC:0E:C2:26:3D:EB:0F:87:D2:F6:BF

    Signature Algorithm: sha256WithRSAEncryption
         11:35:1f:52:f4:18:24:77:f4:70:b8:37:1f:51:e5:46:e1:39:
         89:dd:a2:0a:04:80:f8:08:6e:0c:b1:5f:96:ff:9e:d0:bc:b3:
         8e:cb:75:52:b2:15:f5:e9:15:c5:40:b2:3d:c1:ac:91:a3:56:
         bf:0a:a3:6d:fe:3d:49:36:d5:7d:11:95:34:ee:08:0d:e1:2e:
         4c:2e:a7:3b:26:42:de:88:ea:49:47:93:8c:50:08:96:df:04:
         0d:89:57:45:69:53:e7:d3:c1:3a:da:ee:7c:37:1c:1d:7b:be:
         44:4c:2e:c4:18:b1:df:f5:5c:77:87:a7:f2:06:e1:09:43:82:
         d7:9c:5c:57:38:1d:88:54:ba:b3:13:c3:75:6a:cd:47:e5:45:
         7f:a0:e7:20:ea:d3:18:5d:e8:04:f5:92:e2:4f:cc:18:45:24:
         04:9f:20:a4:07:91:78:a2:d1:96:ea:3f:f1:2d:65:63:dc:41:
         c6:86:d1:ed:19:8a:71:e3:0c:3d:4d:f8:ca:c3:11:81:71:6b:
         12:c1:0e:52:f1:08:bc:8f:79:83:ef:46:4a:d7:26:23:e7:28:
         b1:c9:72:16:8d:18:36:d0:59:a3:58:80:89:98:85:45:76:93:
         13:10:48:13:96:2f:c2:d5:95:10:00:75:44:f7:2e:84:e7:b3:
         ae:09:35:e8
-----BEGIN CERTIFICATE-----
MIIDUDCCAjigAwIBAgIBATANBgkqhkiG9w0BAQsFADB0MQswCQYDVQQGEwJDTjEQ
MA4GA1UECAwHU0lDSFVBTjEOMAwGA1UECgwFVUVTVEMxCzAJBgNVBAsMAkNTMRIw
EAYDVQQDDAlRVUFOVFVfWk8xIjAgBgkqhkiG9w0BCQEWE3F1YW50dV96b0B5YWhv
by5jb20wHhcNMTgxMTIxMDI0MjI2WhcNMTkxMTIxMDI0MjI2WjBqMQswCQYDVQQG
EwJDTjEQMA4GA1UECAwHU0lDSFVBTjEOMAwGA1UECgwFVUVTVEMxCzAJBgNVBAsM
AkNTMRIwEAYDVQQDDAlRVUFOVFVfWk8xGDAWBgkqhkiG9w0BCQEWCTExQHFxLmNv
bTCBnzANBgkqhkiG9w0BAQEFAAOBjQAwgYkCgYEAsHd2eEk6tRnBF19WgloF0NVe
S3wbhFWrVUYqUwULdXr01kuMSvUkCiyiG7sV4hLfKv7QUBQYt9DbDUC4xM3UTITi
XL215cl4mEfD8XHqhNC/VpG71Nocfrn1pLgXYGBTijVwiPCO0qb0oCsBd+Yomo54
i45J732G0fANstGg6YECAwEAAaN7MHkwCQYDVR0TBAIwADAsBglghkgBhvhCAQ0E
HxYdT3BlblNTTCBHZW5lcmF0ZWQgQ2VydGlmaWNhdGUwHQYDVR0OBBYEFJr+ch4f
rBBM+ebH9KfHe31W2Wi0MB8GA1UdIwQYMBaAFC19bAEePvYaJNwOwiY96w+H0va/
MA0GCSqGSIb3DQEBCwUAA4IBAQARNR9S9Bgkd/RwuDcfUeVG4TmJ3aIKBID4CG4M
sV+W/57QvLOOy3VSshX16RXFQLI9wayRo1a/CqNt/j1JNtV9EZU07ggN4S5MLqc7
JkLeiOpJR5OMUAiW3wQNiVdFaVPn08E62u58Nxwde75ETC7EGLHf9Vx3h6fyBuEJ
Q4LXnFxXOB2IVLqzE8N1as1H5UV/oOcg6tMYXegE9ZLiT8wYRSQEnyCkB5F4otGW
6j/xLWVj3EHGhtHtGYpx4ww9TfjKwxGBcWsSwQ5S8Qi8j3mD70ZK1yYj5yixyXIW
jRg20FmjWICJmIVFdpMTEEgTli/C1ZUQAHVE9y6E57OuCTXo
-----END CERTIFICATE-----
