Certificate:
    Data:
        Version: 3 (0x2)
        Serial Number:
            84:5b:d4:64:6a:1b:47:45
    Signature Algorithm: sha256WithRSAEncryption
        Issuer: C=11, ST=11, O=11, OU=11, CN=11/emailAddress=11
        Validity
            Not Before: Nov 25 15:03:21 2018 GMT
            Not After : Nov 24 15:03:21 2021 GMT
        Subject: C=11, ST=11, O=11, OU=11, CN=11/emailAddress=11
        Subject Public Key Info:
            Public Key Algorithm: rsaEncryption
                Public-Key: (2048 bit)
                Modulus:
                    00:e3:46:64:b0:7f:3d:d2:5d:90:4a:31:69:a3:fc:
                    97:57:e4:ae:40:51:9e:66:2c:d9:6b:9b:25:c4:59:
                    ea:8c:25:9e:8a:d5:71:a3:1f:a2:a7:74:bb:a6:01:
                    4f:01:c5:ad:3a:a3:a4:e8:56:2a:4c:01:eb:21:23:
                    62:6f:90:53:22:b7:5d:d9:4a:ac:65:57:ad:52:de:
                    19:e9:4e:05:17:9b:bb:28:ea:2c:28:ee:3f:7b:1f:
                    94:6f:f7:81:3b:ba:c1:72:12:19:87:7c:89:76:84:
                    6b:6f:8f:1b:e0:a2:af:08:dd:84:61:a6:d3:4f:d0:
                    a9:1a:ab:4a:56:65:92:5f:7b:74:e0:15:4c:60:b2:
                    a7:b6:64:05:0c:f1:c9:30:73:ef:9b:fa:87:cb:17:
                    a6:0a:c5:91:82:e0:eb:7b:42:71:61:31:67:9c:f1:
                    c5:a8:06:f4:bd:06:b8:da:88:cb:dc:ac:d1:a1:89:
                    cc:16:65:46:31:11:f9:19:96:45:4d:7a:e6:71:26:
                    bc:27:2a:e6:cc:5f:ae:9b:7b:16:b3:a8:28:3e:5f:
                    35:0b:94:66:0e:7a:20:9b:05:45:ea:bf:c5:30:74:
                    ed:42:2a:a8:0a:45:24:50:53:8d:aa:49:34:bd:64:
                    7d:9e:ad:21:bb:3b:aa:de:cf:fd:a7:bd:c4:3a:29:
                    ea:11
                Exponent: 65537 (0x10001)
        X509v3 extensions:
            X509v3 Subject Key Identifier: 
                B2:2A:56:32:10:86:E6:F9:A4:BF:5E:38:5F:09:1A:34:D2:5D:4B:C7
            X509v3 Authority Key Identifier: 
                keyid:B2:2A:56:32:10:86:E6:F9:A4:BF:5E:38:5F:09:1A:34:D2:5D:4B:C7

            X509v3 Basic Constraints: 
                CA:TRUE
    Signature Algorithm: sha256WithRSAEncryption
         3a:1f:9a:d2:58:1b:55:b3:2c:15:71:17:64:20:f3:4c:82:38:
         74:13:e6:7a:f6:18:33:90:c6:23:e9:c0:28:0b:ee:7f:32:e6:
         ad:e2:d3:ee:8b:28:84:58:a1:12:3a:51:07:fa:b7:55:b0:42:
         76:a9:b4:95:ea:05:be:41:9b:91:ce:0d:ff:36:e6:0a:f4:30:
         13:21:7a:c1:00:1d:d5:01:b5:87:4c:64:b4:4f:44:05:c0:04:
         ed:6b:2a:47:79:bf:cb:18:39:54:25:a8:d2:19:2b:b3:76:40:
         32:12:37:50:90:11:1c:8c:c3:1f:3d:ff:ba:18:87:b1:78:8d:
         09:82:45:05:35:d6:c3:1a:60:08:4c:84:e8:c2:ca:fa:5d:de:
         4e:fe:24:93:eb:bb:4c:34:fe:62:1e:00:fc:e1:aa:2d:47:7d:
         c0:ad:56:f7:ab:5f:31:8d:d3:3f:aa:2b:41:6a:80:1b:2f:ca:
         70:05:e5:4b:c9:42:8c:e3:f0:fc:50:a7:56:dd:18:33:9f:5f:
         f3:b9:0f:02:58:4f:3c:63:19:52:18:47:48:6f:10:70:bc:b6:
         f6:cc:8a:47:7a:c4:d2:1e:f8:e4:3a:09:03:79:cd:2b:1d:07:
         de:0e:91:e0:ec:35:1b:c8:5c:b9:8d:cf:b4:d0:66:d1:6b:94:
         70:96:8e:52
-----BEGIN CERTIFICATE-----
MIIDezCCAmOgAwIBAgIJAIRb1GRqG0dFMA0GCSqGSIb3DQEBCwUAMFQxCzAJBgNV
BAYTAjExMQswCQYDVQQIDAIxMTELMAkGA1UECgwCMTExCzAJBgNVBAsMAjExMQsw
CQYDVQQDDAIxMTERMA8GCSqGSIb3DQEJARYCMTEwHhcNMTgxMTI1MTUwMzIxWhcN
MjExMTI0MTUwMzIxWjBUMQswCQYDVQQGEwIxMTELMAkGA1UECAwCMTExCzAJBgNV
BAoMAjExMQswCQYDVQQLDAIxMTELMAkGA1UEAwwCMTExETAPBgkqhkiG9w0BCQEW
AjExMIIBIjANBgkqhkiG9w0BAQEFAAOCAQ8AMIIBCgKCAQEA40ZksH890l2QSjFp
o/yXV+SuQFGeZizZa5slxFnqjCWeitVxox+ip3S7pgFPAcWtOqOk6FYqTAHrISNi
b5BTIrdd2UqsZVetUt4Z6U4FF5u7KOosKO4/ex+Ub/eBO7rBchIZh3yJdoRrb48b
4KKvCN2EYabTT9CpGqtKVmWSX3t04BVMYLKntmQFDPHJMHPvm/qHyxemCsWRguDr
e0JxYTFnnPHFqAb0vQa42ojL3KzRoYnMFmVGMRH5GZZFTXrmcSa8JyrmzF+um3sW
s6goPl81C5RmDnogmwVF6r/FMHTtQiqoCkUkUFONqkk0vWR9nq0huzuq3s/9p73E
OinqEQIDAQABo1AwTjAdBgNVHQ4EFgQUsipWMhCG5vmkv144XwkaNNJdS8cwHwYD
VR0jBBgwFoAUsipWMhCG5vmkv144XwkaNNJdS8cwDAYDVR0TBAUwAwEB/zANBgkq
hkiG9w0BAQsFAAOCAQEAOh+a0lgbVbMsFXEXZCDzTII4dBPmevYYM5DGI+nAKAvu
fzLmreLT7osohFihEjpRB/q3VbBCdqm0leoFvkGbkc4N/zbmCvQwEyF6wQAd1QG1
h0xktE9EBcAE7WsqR3m/yxg5VCWo0hkrs3ZAMhI3UJARHIzDHz3/uhiHsXiNCYJF
BTXWwxpgCEyE6MLK+l3eTv4kk+u7TDT+Yh4A/OGqLUd9wK1W96tfMY3TP6orQWqA
Gy/KcAXlS8lCjOPw/FCnVt0YM59f87kPAlhPPGMZUhhHSG8QcLy29syKR3rE0h74
5DoJA3nNKx0H3g6R4Ow1G8hcuY3PtNBm0WuUcJaOUg==
-----END CERTIFICATE-----
